target datalayout = "e-m:e-p270:32:32-p271:32:32-p272:64:64-i64:64-i128:128-f80:128-n8:16:32:64-S128"
target triple = "x86_64-pc-linux-gnu"

%"class.icu_77::Locale" = type <{ %"class.icu_77::UObject", [12 x i8], [6 x i8], [4 x i8], [2 x i8], i32, [4 x i8], ptr, [157 x i8], [3 x i8], ptr, i8, [7 x i8] }>
%"class.icu_77::UObject" = type { ptr }
%"class.icu_77::internal::LocalOpenPointer" = type { %"class.icu_77::LocalPointerBase" }
%"class.icu_77::LocalPointerBase" = type { ptr }

@_ZN12_GLOBAL__N_111_kLanguagesE = internal constant [10 x i8] c"Languages\00", align 1

; Function Attrs: mustprogress nounwind uwtable
define linkonce_odr void @_ZN6icu_7716LocalPointerBaseI15UResourceBundleEC2EPS1_(ptr noundef nonnull align 8 dereferenceable(8) %0, ptr noundef %1) unnamed_addr #0 comdat align 2 {
  %3 = alloca ptr, align 8
  %4 = alloca ptr, align 8
  store ptr %0, ptr %3, align 8, !tbaa !46
  store ptr %1, ptr %4, align 8, !tbaa !44
  %5 = load ptr, ptr %3, align 8
  %6 = getelementptr inbounds nuw %"class.icu_77::LocalPointerBase", ptr %5, i32 0, i32 0
  %7 = load ptr, ptr %4, align 8, !tbaa !44
  store ptr %7, ptr %6, align 8, !tbaa !48
  ret void
}

; Function Attrs: inlinehint mustprogress nounwind uwtable
define linkonce_odr noundef ptr @_ZNK6icu_776Locale7getNameEv(ptr noundef nonnull align 8 dereferenceable(217) %0) #2 comdat align 2 {
  %2 = alloca ptr, align 8
  store ptr %0, ptr %2, align 8, !tbaa !23
  %3 = load ptr, ptr %2, align 8
  %4 = getelementptr inbounds nuw %"class.icu_77::Locale", ptr %3, i32 0, i32 7
  %5 = load ptr, ptr %4, align 8, !tbaa !29
  ret ptr %5
}

; Function Attrs: mustprogress nounwind uwtable
define linkonce_odr noundef ptr @_ZNK6icu_7716LocalPointerBaseI15UResourceBundleE8getAliasEv(ptr noundef nonnull align 8 dereferenceable(8) %0) #0 comdat align 2 {
  %2 = alloca ptr, align 8
  store ptr %0, ptr %2, align 8, !tbaa !46
  %3 = load ptr, ptr %2, align 8
  %4 = getelementptr inbounds nuw %"class.icu_77::LocalPointerBase", ptr %3, i32 0, i32 0
  %5 = load ptr, ptr %4, align 8, !tbaa !48
  ret ptr %5
}

; Function Attrs: inlinehint mustprogress nounwind uwtable
define internal noundef signext i8 @_ZL9U_SUCCESS10UErrorCode(i32 noundef %0) #2 {
  %2 = alloca i32, align 4
  store i32 %0, ptr %2, align 4, !tbaa !15
  %3 = load i32, ptr %2, align 4, !tbaa !15
  %4 = icmp sle i32 %3, 0
  %5 = zext i1 %4 to i8
  ret i8 %5
}

; Function Attrs: mustprogress uwtable
define linkonce_odr void @_ZN6icu_778internal16LocalOpenPointerI15UResourceBundleXadL_Z13ures_close_77EEEC2EPS2_(ptr noundef nonnull align 8 dereferenceable(8) %0, ptr noundef %1) unnamed_addr #1 comdat align 2 {
  %3 = alloca ptr, align 8
  %4 = alloca ptr, align 8
  store ptr %0, ptr %3, align 8, !tbaa !42
  store ptr %1, ptr %4, align 8, !tbaa !44
  %5 = load ptr, ptr %3, align 8
  %6 = load ptr, ptr %4, align 8, !tbaa !44
  call void @_ZN6icu_7716LocalPointerBaseI15UResourceBundleEC2EPS1_(ptr noundef nonnull align 8 dereferenceable(8) %5, ptr noundef %6)
  ret void
}

; Function Attrs: inlinehint mustprogress nounwind uwtable
define internal noundef signext i8 @_ZL9U_FAILURE10UErrorCode(i32 noundef %0) #2 {
  %2 = alloca i32, align 4
  store i32 %0, ptr %2, align 4, !tbaa !15
  %3 = load i32, ptr %2, align 4, !tbaa !15
  %4 = icmp sgt i32 %3, 0
  %5 = zext i1 %4 to i8
  ret i8 %5
}

; Function Attrs: mustprogress uwtable
define internal noundef i32 @_ZN12_GLOBAL__N_119_getStringOrCopyKeyEPKcS1_S1_S1_S1_S1_PDsiR10UErrorCode(ptr noundef %0, ptr noundef %1, ptr noundef %2, ptr noundef %3, ptr noundef %4, ptr noundef %5, ptr noundef %6, i32 noundef %7, ptr noundef nonnull align 4 dereferenceable(4) %8) #1 personality ptr @__gxx_personality_v0 {
  %10 = alloca i32, align 4
  %11 = alloca ptr, align 8
  %12 = alloca ptr, align 8
  %13 = alloca ptr, align 8
  %14 = alloca ptr, align 8
  %15 = alloca ptr, align 8
  %16 = alloca ptr, align 8
  %17 = alloca ptr, align 8
  %18 = alloca i32, align 4
  %19 = alloca ptr, align 8
  %20 = alloca ptr, align 8
  %21 = alloca i32, align 4
  %22 = alloca %"class.icu_77::internal::LocalOpenPointer", align 8
  %23 = alloca ptr, align 8
  %24 = alloca i32, align 4
  %25 = alloca i8, align 1
  %26 = alloca %"class.icu_77::Locale", align 8
  %27 = alloca i32, align 4
  store ptr %0, ptr %11, align 8, !tbaa !17
  store ptr %1, ptr %12, align 8, !tbaa !17
  store ptr %2, ptr %13, align 8, !tbaa !17
  store ptr %3, ptr %14, align 8, !tbaa !17
  store ptr %4, ptr %15, align 8, !tbaa !17
  store ptr %5, ptr %16, align 8, !tbaa !17
  store ptr %6, ptr %17, align 8, !tbaa !27
  store i32 %7, ptr %18, align 4, !tbaa !14
  store ptr %8, ptr %19, align 8, !tbaa !22
  %28 = load ptr, ptr %19, align 8, !tbaa !22
  %29 = load i32, ptr %28, align 4, !tbaa !15
  %30 = call noundef signext i8 @_ZL9U_FAILURE10UErrorCode(i32 noundef %29)
  %31 = icmp ne i8 %30, 0
  br i1 %31, label %32, label %33

32:                                               ; preds = %9
  store i32 0, ptr %10, align 4
  br label %143

33:                                               ; preds = %9
  call void @llvm.lifetime.start.p0(i64 8, ptr %20) #11
  store ptr null, ptr %20, align 8, !tbaa !27
  call void @llvm.lifetime.start.p0(i64 4, ptr %21) #11
  store i32 0, ptr %21, align 4, !tbaa !14
  %34 = load ptr, ptr %15, align 8, !tbaa !17
  %35 = icmp eq ptr %34, null
  br i1 %35, label %36, label %57

36:                                               ; preds = %33
  call void @llvm.lifetime.start.p0(i64 8, ptr %22) #11
  %37 = load ptr, ptr %11, align 8, !tbaa !17
  %38 = load ptr, ptr %12, align 8, !tbaa !17
  %39 = load ptr, ptr %19, align 8, !tbaa !22
  %40 = call ptr @ures_open_77(ptr noundef %37, ptr noundef %38, ptr noundef %39)
  call void @_ZN6icu_778internal16LocalOpenPointerI15UResourceBundleXadL_Z13ures_close_77EEEC2EPS2_(ptr noundef nonnull align 8 dereferenceable(8) %22, ptr noundef %40)
  %41 = load ptr, ptr %19, align 8, !tbaa !22
  %42 = load i32, ptr %41, align 4, !tbaa !15
  %43 = call noundef signext i8 @_ZL9U_SUCCESS10UErrorCode(i32 noundef %42)
  %44 = icmp ne i8 %43, 0
  br i1 %44, label %45, label %56

45:                                               ; preds = %36
  %46 = invoke noundef ptr @_ZNK6icu_7716LocalPointerBaseI15UResourceBundleE8getAliasEv(ptr noundef nonnull align 8 dereferenceable(8) %22)
          to label %47 unwind label %52

47:                                               ; preds = %45
  %48 = load ptr, ptr %13, align 8, !tbaa !17
  %49 = load ptr, ptr %19, align 8, !tbaa !22
  %50 = invoke ptr @ures_getStringByKey_77(ptr noundef %46, ptr noundef %48, ptr noundef %21, ptr noundef %49)
          to label %51 unwind label %52

51:                                               ; preds = %47
  store ptr %50, ptr %20, align 8, !tbaa !27
  br label %56

52:                                               ; preds = %47, %45
  %53 = landingpad { ptr, i32 }
          cleanup
  %54 = extractvalue { ptr, i32 } %53, 0
  store ptr %54, ptr %23, align 8
  %55 = extractvalue { ptr, i32 } %53, 1
  store i32 %55, ptr %24, align 4
  call void @_ZN6icu_778internal16LocalOpenPointerI15UResourceBundleXadL_Z13ures_close_77EEED2Ev(ptr noundef nonnull align 8 dereferenceable(8) %22) #11
  call void @llvm.lifetime.end.p0(i64 8, ptr %22) #11
  br label %142

56:                                               ; preds = %51, %36
  call void @_ZN6icu_778internal16LocalOpenPointerI15UResourceBundleXadL_Z13ures_close_77EEED2Ev(ptr noundef nonnull align 8 dereferenceable(8) %22) #11
  call void @llvm.lifetime.end.p0(i64 8, ptr %22) #11
  br label %106

57:                                               ; preds = %33
  call void @llvm.lifetime.start.p0(i64 1, ptr %25) #11
  %58 = load ptr, ptr %13, align 8, !tbaa !17
  %59 = call i32 @strncmp(ptr noundef %58, ptr noundef @_ZN12_GLOBAL__N_111_kLanguagesE, i64 noundef 9) #14
  %60 = icmp eq i32 %59, 0
  %61 = zext i1 %60 to i8
  store i8 %61, ptr %25, align 1, !tbaa !58
  %62 = load i8, ptr %25, align 1, !tbaa !58, !range !60, !noundef !61
  %63 = trunc i8 %62 to i1
  br i1 %63, label %64, label %70

64:                                               ; preds = %57
  %65 = load ptr, ptr %15, align 8, !tbaa !17
  %66 = call i64 @strtol(ptr noundef %65, ptr noundef null, i32 noundef 10) #11
  %67 = icmp ne i64 %66, 0
  br i1 %67, label %68, label %70

68:                                               ; preds = %64
  %69 = load ptr, ptr %19, align 8, !tbaa !22
  store i32 2, ptr %69, align 4, !tbaa !15
  br label %105

70:                                               ; preds = %64, %57
  %71 = load ptr, ptr %11, align 8, !tbaa !17
  %72 = load ptr, ptr %12, align 8, !tbaa !17
  %73 = load ptr, ptr %13, align 8, !tbaa !17
  %74 = load ptr, ptr %14, align 8, !tbaa !17
  %75 = load ptr, ptr %15, align 8, !tbaa !17
  %76 = load ptr, ptr %19, align 8, !tbaa !22
  %77 = call ptr @uloc_getTableStringWithFallback_77(ptr noundef %71, ptr noundef %72, ptr noundef %73, ptr noundef %74, ptr noundef %75, ptr noundef %21, ptr noundef %76)
  store ptr %77, ptr %20, align 8, !tbaa !27
  %78 = load ptr, ptr %19, align 8, !tbaa !22
  %79 = load i32, ptr %78, align 4, !tbaa !15
  %80 = call noundef signext i8 @_ZL9U_FAILURE10UErrorCode(i32 noundef %79)
  %81 = icmp ne i8 %80, 0
  br i1 %81, label %82, label %104

82:                                               ; preds = %70
  %83 = load i8, ptr %25, align 1, !tbaa !58, !range !60, !noundef !61
  %84 = trunc i8 %83 to i1
  br i1 %84, label %85, label %104

85:                                               ; preds = %82
  %86 = load ptr, ptr %15, align 8, !tbaa !17
  %87 = icmp ne ptr %86, null
  br i1 %87, label %88, label %104

88:                                               ; preds = %85
  %89 = load ptr, ptr %19, align 8, !tbaa !22
  store i32 0, ptr %89, align 4, !tbaa !15
  call void @llvm.lifetime.start.p0(i64 224, ptr %26) #11
  %90 = load ptr, ptr %15, align 8, !tbaa !17
  call void @_ZN6icu_776Locale15createCanonicalEPKc(ptr dead_on_unwind writable sret(%"class.icu_77::Locale") align 8 %26, ptr noundef %90)
  %91 = load ptr, ptr %11, align 8, !tbaa !17
  %92 = load ptr, ptr %12, align 8, !tbaa !17
  %93 = load ptr, ptr %13, align 8, !tbaa !17
  %94 = load ptr, ptr %14, align 8, !tbaa !17
  %95 = invoke noundef ptr @_ZNK6icu_776Locale7getNameEv(ptr noundef nonnull align 8 dereferenceable(217) %26)
          to label %96 unwind label %100

96:                                               ; preds = %88
  %97 = load ptr, ptr %19, align 8, !tbaa !22
  %98 = invoke ptr @uloc_getTableStringWithFallback_77(ptr noundef %91, ptr noundef %92, ptr noundef %93, ptr noundef %94, ptr noundef %95, ptr noundef %21, ptr noundef %97)
          to label %99 unwind label %100

99:                                               ; preds = %96
  store ptr %98, ptr %20, align 8, !tbaa !27
  call void @_ZN6icu_776LocaleD1Ev(ptr noundef nonnull align 8 dereferenceable(217) %26) #11
  call void @llvm.lifetime.end.p0(i64 224, ptr %26) #11
  br label %104

100:                                              ; preds = %96, %88
  %101 = landingpad { ptr, i32 }
          cleanup
  %102 = extractvalue { ptr, i32 } %101, 0
  store ptr %102, ptr %23, align 8
  %103 = extractvalue { ptr, i32 } %101, 1
  store i32 %103, ptr %24, align 4
  call void @_ZN6icu_776LocaleD1Ev(ptr noundef nonnull align 8 dereferenceable(217) %26) #11
  call void @llvm.lifetime.end.p0(i64 224, ptr %26) #11
  call void @llvm.lifetime.end.p0(i64 1, ptr %25) #11
  br label %142

104:                                              ; preds = %99, %85, %82, %70
  br label %105

105:                                              ; preds = %104, %68
  call void @llvm.lifetime.end.p0(i64 1, ptr %25) #11
  br label %106

106:                                              ; preds = %105, %56
  %107 = load ptr, ptr %19, align 8, !tbaa !22
  %108 = load i32, ptr %107, align 4, !tbaa !15
  %109 = call noundef signext i8 @_ZL9U_SUCCESS10UErrorCode(i32 noundef %108)
  %110 = icmp ne i8 %109, 0
  br i1 %110, label %111, label %126

111:                                              ; preds = %106
  call void @llvm.lifetime.start.p0(i64 4, ptr %27) #11
  %112 = load i32, ptr %21, align 4, !tbaa !14
  %113 = load i32, ptr %18, align 4, !tbaa !14
  %114 = call i32 @uprv_min_77(i32 noundef %112, i32 noundef %113)
  store i32 %114, ptr %27, align 4, !tbaa !14
  %115 = load i32, ptr %27, align 4, !tbaa !14
  %116 = icmp sgt i32 %115, 0
  br i1 %116, label %117, label %125

117:                                              ; preds = %111
  %118 = load ptr, ptr %20, align 8, !tbaa !27
  %119 = icmp ne ptr %118, null
  br i1 %119, label %120, label %125

120:                                              ; preds = %117
  %121 = load ptr, ptr %17, align 8, !tbaa !27
  %122 = load ptr, ptr %20, align 8, !tbaa !27
  %123 = load i32, ptr %27, align 4, !tbaa !14
  %124 = call ptr @u_memcpy_77(ptr noundef %121, ptr noundef %122, i32 noundef %123)
  br label %125

125:                                              ; preds = %120, %117, %111
  call void @llvm.lifetime.end.p0(i64 4, ptr %27) #11
  br label %136

126:                                              ; preds = %106
  %127 = load ptr, ptr %16, align 8, !tbaa !17
  %128 = call i64 @strlen(ptr noundef %127) #14
  %129 = trunc i64 %128 to i32
  store i32 %129, ptr %21, align 4, !tbaa !14
  %130 = load ptr, ptr %16, align 8, !tbaa !17
  %131 = load ptr, ptr %17, align 8, !tbaa !27
  %132 = load i32, ptr %21, align 4, !tbaa !14
  %133 = load i32, ptr %18, align 4, !tbaa !14
  %134 = call i32 @uprv_min_77(i32 noundef %132, i32 noundef %133)
  call void @u_charsToUChars_77(ptr noundef %130, ptr noundef %131, i32 noundef %134)
  %135 = load ptr, ptr %19, align 8, !tbaa !22
  store i32 -127, ptr %135, align 4, !tbaa !15
  br label %136

136:                                              ; preds = %126, %125
  %137 = load ptr, ptr %17, align 8, !tbaa !27
  %138 = load i32, ptr %18, align 4, !tbaa !14
  %139 = load i32, ptr %21, align 4, !tbaa !14
  %140 = load ptr, ptr %19, align 8, !tbaa !22
  %141 = call i32 @u_terminateUChars_77(ptr noundef %137, i32 noundef %138, i32 noundef %139, ptr noundef %140)
  store i32 %141, ptr %10, align 4
  call void @llvm.lifetime.end.p0(i64 4, ptr %21) #11
  call void @llvm.lifetime.end.p0(i64 8, ptr %20) #11
  br label %143

142:                                              ; preds = %100, %52
  call void @llvm.lifetime.end.p0(i64 4, ptr %21) #11
  call void @llvm.lifetime.end.p0(i64 8, ptr %20) #11
  br label %145

143:                                              ; preds = %136, %32
  %144 = load i32, ptr %10, align 4
  ret i32 %144

145:                                              ; preds = %142
  %146 = load ptr, ptr %23, align 8
  %147 = load i32, ptr %24, align 4
  %148 = insertvalue { ptr, i32 } poison, ptr %146, 0
  %149 = insertvalue { ptr, i32 } %148, i32 %147, 1
  resume { ptr, i32 } %149
}