; Function Attrs: mustprogress uwtable
define internal fastcc noundef i32 @_ZN12_GLOBAL__N_119_getStringOrCopyKeyEPKcS1_S1_S1_S1_S1_PDsiR10UErrorCode(ptr noundef %0, ptr noundef %1, ptr noundef %2, ptr noundef %3, ptr noundef %4, ptr noundef %5, ptr noundef %6, i32 noundef range(i32 0, -2147483648) %7, ptr noundef nonnull align 4 dereferenceable(4) %8) unnamed_addr #1 personality ptr @__gxx_personality_v0 {
  %10 = alloca i32, align 4
  %11 = alloca %"class.icu_77::internal::LocalOpenPointer", align 8
  %12 = alloca %"class.icu_77::Locale", align 8
  %13 = load i32, ptr %8, align 4, !tbaa !13
  %14 = icmp slt i32 %13, 1
  br i1 %14, label %15, label %63

15:                                               ; preds = %9
  call void @llvm.lifetime.start.p0(i64 4, ptr nonnull %10) #14
  store i32 0, ptr %10, align 4, !tbaa !12
  %16 = icmp eq ptr %4, null
  br i1 %16, label %17, label %29

17:                                               ; preds = %15
  call void @llvm.lifetime.start.p0(i64 8, ptr nonnull %11) #14
  %18 = tail call ptr @ures_open_77(ptr noundef %0, ptr noundef %1, ptr noundef nonnull %8)
  store ptr %18, ptr %11, align 8, !tbaa !22
  %19 = load i32, ptr %8, align 4, !tbaa !13
  %20 = icmp sgt i32 %19, 0
  br i1 %20, label %thread-pre-split, label %21

21:                                               ; preds = %17
  %22 = invoke ptr @ures_getStringByKey_77(ptr noundef %18, ptr noundef %2, ptr noundef nonnull %10, ptr noundef nonnull %8)
          to label %thread-pre-split unwind label %23

23:                                               ; preds = %21
  %24 = landingpad { ptr, i32 }
          cleanup
  call void @_ZN6icu_778internal16LocalOpenPointerI15UResourceBundleXadL_Z13ures_close_77EEED2Ev(ptr noundef nonnull align 8 dereferenceable(8) %11) #14
  call void @llvm.lifetime.end.p0(i64 8, ptr nonnull %11) #14
  br label %62

thread-pre-split:                                 ; preds = %21, %17
  %.048 = phi ptr [ null, %17 ], [ %22, %21 ]
  %.not.i = icmp eq ptr %18, null
  br i1 %.not.i, label %_ZN6icu_778internal16LocalOpenPointerI15UResourceBundleXadL_Z13ures_close_77EEED2Ev.exit, label %25

25:                                               ; preds = %thread-pre-split
  invoke void @ures_close_77(ptr noundef nonnull %18)
          to label %_ZN6icu_778internal16LocalOpenPointerI15UResourceBundleXadL_Z13ures_close_77EEED2Ev.exit unwind label %26

26:                                               ; preds = %25
  %27 = landingpad { ptr, i32 }
          catch ptr null
  %28 = extractvalue { ptr, i32 } %27, 0
  call void @__clang_call_terminate(ptr %28) #16
  unreachable

_ZN6icu_778internal16LocalOpenPointerI15UResourceBundleXadL_Z13ures_close_77EEED2Ev.exit: ; preds = %thread-pre-split, %25
  call void @llvm.lifetime.end.p0(i64 8, ptr nonnull %11) #14
  br label %thread-pre-split59

29:                                               ; preds = %15
  %30 = tail call i32 @strncmp(ptr noundef nonnull dereferenceable(1) %2, ptr noundef nonnull dereferenceable(10) @_ZN12_GLOBAL__N_111_kLanguagesE, i64 noundef 9) #17
  %31 = icmp ne i32 %30, 0
  br i1 %31, label %34, label %32

32:                                               ; preds = %29
  %33 = tail call i64 @strtol(ptr noundef nonnull captures(none) %4, ptr noundef null, i32 noundef 10) #14
  %.not53 = icmp eq i64 %33, 0
  br i1 %.not53, label %34, label %.thread

.thread:                                          ; preds = %32
  store i32 2, ptr %8, align 4, !tbaa !13
  br label %55

34:                                               ; preds = %32, %29
  %35 = call ptr @uloc_getTableStringWithFallback_77(ptr noundef %0, ptr noundef %1, ptr noundef nonnull %2, ptr noundef %3, ptr noundef nonnull %4, ptr noundef nonnull %10, ptr noundef nonnull %8)
  %36 = load i32, ptr %8, align 4, !tbaa !13
  %37 = icmp slt i32 %36, 1
  %brmerge = or i1 %31, %37
  br i1 %brmerge, label %45, label %38

38:                                               ; preds = %34
  store i32 0, ptr %8, align 4, !tbaa !13
  call void @llvm.lifetime.start.p0(i64 224, ptr nonnull %12) #14
  call void @_ZN6icu_776Locale15createCanonicalEPKc(ptr dead_on_unwind nonnull writable sret(%"class.icu_77::Locale") align 8 %12, ptr noundef nonnull %4)
  %39 = getelementptr inbounds nuw i8, ptr %12, i64 40
  %40 = load ptr, ptr %39, align 8, !tbaa !16
  %41 = invoke ptr @uloc_getTableStringWithFallback_77(ptr noundef %0, ptr noundef %1, ptr noundef nonnull %2, ptr noundef %3, ptr noundef %40, ptr noundef nonnull %10, ptr noundef nonnull %8)
          to label %42 unwind label %43

42:                                               ; preds = %38
  call void @_ZN6icu_776LocaleD1Ev(ptr noundef nonnull align 8 dereferenceable(217) %12) #14
  call void @llvm.lifetime.end.p0(i64 224, ptr nonnull %12) #14
  br label %thread-pre-split59

43:                                               ; preds = %38
  %44 = landingpad { ptr, i32 }
          cleanup
  call void @_ZN6icu_776LocaleD1Ev(ptr noundef nonnull align 8 dereferenceable(217) %12) #14
  call void @llvm.lifetime.end.p0(i64 224, ptr nonnull %12) #14
  br label %62

thread-pre-split59:                               ; preds = %_ZN6icu_778internal16LocalOpenPointerI15UResourceBundleXadL_Z13ures_close_77EEED2Ev.exit, %42
  %.1.ph = phi ptr [ %41, %42 ], [ %.048, %_ZN6icu_778internal16LocalOpenPointerI15UResourceBundleXadL_Z13ures_close_77EEED2Ev.exit ]
  %.pr = load i32, ptr %8, align 4, !tbaa !13
  br label %45

45:                                               ; preds = %thread-pre-split59, %34
  %46 = phi i32 [ %.pr, %thread-pre-split59 ], [ %36, %34 ]
  %.1 = phi ptr [ %.1.ph, %thread-pre-split59 ], [ %35, %34 ]
  %47 = icmp sgt i32 %46, 0
  br i1 %47, label %55, label %48

48:                                               ; preds = %45
  %49 = load i32, ptr %10, align 4, !tbaa !12
  %50 = call i32 @uprv_min_77(i32 noundef %49, i32 noundef %7)
  %51 = icmp sgt i32 %50, 0
  %52 = icmp ne ptr %.1, null
  %or.cond3 = select i1 %51, i1 %52, i1 false
  br i1 %or.cond3, label %53, label %59

53:                                               ; preds = %48
  %54 = call ptr @u_memcpy_77(ptr noundef %6, ptr noundef nonnull %.1, i32 noundef %50)
  br label %59

55:                                               ; preds = %.thread, %45
  %56 = call i64 @strlen(ptr noundef nonnull dereferenceable(1) %5) #17
  %57 = trunc i64 %56 to i32
  store i32 %57, ptr %10, align 4, !tbaa !12
  %58 = call i32 @uprv_min_77(i32 noundef %57, i32 noundef %7)
  call void @u_charsToUChars_77(ptr noundef nonnull %5, ptr noundef %6, i32 noundef %58)
  store i32 -127, ptr %8, align 4, !tbaa !13
  br label %59

59:                                               ; preds = %48, %53, %55
  %60 = load i32, ptr %10, align 4, !tbaa !12
  %61 = call i32 @u_terminateUChars_77(ptr noundef %6, i32 noundef %7, i32 noundef %60, ptr noundef nonnull %8)
  call void @llvm.lifetime.end.p0(i64 4, ptr nonnull %10) #14
  br label %63

62:                                               ; preds = %43, %23
  %.pn = phi { ptr, i32 } [ %24, %23 ], [ %44, %43 ]
  call void @llvm.lifetime.end.p0(i64 4, ptr nonnull %10) #14
  resume { ptr, i32 } %.pn

63:                                               ; preds = %9, %59
  %.0 = phi i32 [ %61, %59 ], [ 0, %9 ]
  ret i32 %.0
}